#include <math.h>
#include <stdio.h>
#include <stdlib.h>
#include <string.h>

int main()
{
	char a[3000];
	int i=0,j=0,c=0,d=10,m,n;
	gets(a);
	while(a[i]!='\0')
	{
		while(a[i]!=' '&&a[i]!='\0')
		{
		  j++;
		  i++;
		}
		if(j>c)
		{
			m=i-j;
			c=j;
		}
		if(j<d)
		{
			n=i-j;
			d=j;
		}
		while(a[i]==' ')
		{
			i++;
			j=0;
		}
	}
	while(a[m]!=' '&&a[m]!='\0')
	{
		printf("%c",a[m]);
		m++;
	}
	printf("\n");
	while(a[n]!=' '&&a[n]!='\0')
	{
		printf("%c",a[n]);
		n++;
	}
	printf("\n");
	return 0;
}

